; Function Attrs: mustprogress nofree norecurse nosync nounwind willreturn memory(argmem: readwrite) uwtable
define dso_local noundef i32 @_PyInterpreterConfig_InitFromState(ptr noundef writeonly captures(none) initializes((0, 28)) %0, ptr noundef readonly captures(none) %1) local_unnamed_addr #3 {
  %3 = getelementptr inbounds nuw i8, ptr %1, i64 8440
  %4 = load i64, ptr %3, align 8, !tbaa !36
  %5 = trunc i64 %4 to i32
  %6 = and i32 %5, 32
  %7 = and i32 %5, 32768
  %8 = and i32 %5, 65536
  %9 = and i32 %5, 1024
  %10 = and i32 %5, 2048
  %11 = and i32 %5, 256
  %12 = getelementptr inbounds nuw i8, ptr %1, i64 24
  %13 = load i32, ptr %12, align 8, !tbaa !114
  %.not = icmp eq i32 %13, 0
  %14 = select i1 %.not, i32 1, i32 2
  store i32 %6, ptr %0, align 4, !tbaa !31
  %.sroa.2.0..sroa_idx = getelementptr inbounds nuw i8, ptr %0, i64 4
  store i32 %7, ptr %.sroa.2.0..sroa_idx, align 4, !tbaa !31
  %.sroa.3.0..sroa_idx = getelementptr inbounds nuw i8, ptr %0, i64 8
  store i32 %8, ptr %.sroa.3.0..sroa_idx, align 4, !tbaa !31
  %.sroa.4.0..sroa_idx = getelementptr inbounds nuw i8, ptr %0, i64 12
  store i32 %9, ptr %.sroa.4.0..sroa_idx, align 4, !tbaa !31
  %.sroa.5.0..sroa_idx = getelementptr inbounds nuw i8, ptr %0, i64 16
  store i32 %10, ptr %.sroa.5.0..sroa_idx, align 4, !tbaa !31
  %.sroa.6.0..sroa_idx = getelementptr inbounds nuw i8, ptr %0, i64 20
  store i32 %11, ptr %.sroa.6.0..sroa_idx, align 4, !tbaa !31
  %.sroa.7.0..sroa_idx = getelementptr inbounds nuw i8, ptr %0, i64 24
  store i32 %14, ptr %.sroa.7.0..sroa_idx, align 4, !tbaa !31
  ret i32 0
}